; Function Attrs: mustprogress nofree norecurse nosync nounwind willreturn memory(argmem: write) uwtable
define noundef i32 @stb__clex_token(ptr noundef writeonly captures(none) initializes((16, 24), (40, 64)) %lexer, i32 noundef %token, ptr noundef %start, ptr noundef %end) local_unnamed_addr #0 {
entry:
  %conv = sext i32 %token to i64
  %token1 = getelementptr inbounds nuw i8, ptr %lexer, i64 56
  store i64 %conv, ptr %token1, align 8
  %where_firstchar = getelementptr inbounds nuw i8, ptr %lexer, i64 40
  store ptr %start, ptr %where_firstchar, align 8
  %where_lastchar = getelementptr inbounds nuw i8, ptr %lexer, i64 48
  store ptr %end, ptr %where_lastchar, align 8
  %add.ptr = getelementptr inbounds nuw i8, ptr %end, i64 1
  %parse_point = getelementptr inbounds nuw i8, ptr %lexer, i64 16
  store ptr %add.ptr, ptr %parse_point, align 8
  ret i32 1
}